__ZTSNSt3__29__num_putIwEE
_atan
_SearchSysCacheAttName
__ZTVNSt3__27num_putIcNS_19ostreambuf_iteratorIcNS_11char_traitsIcEEEEEE
_errcontext_msg
__ZTSNSt3__217moneypunct_bynameIwLb1EEE
__ZTSNSt3__219__shared_weak_countE
_RelationGetNumberOfBlocksInFork
_list_make3_impl
_cstring_to_text_with_len
_FreeFile
__ZNSt3__26__itoa16__digits_base_10E
_DirectFunctionCall1Coll
__ZTVNSt3__215time_put_bynameIcNS_19ostreambuf_iteratorIcNS_11char_traitsIcEEEEEE
_pq_begintypsend
_deconstruct_expanded_record
__ZZNSt3__210__to_charsB8nn180100EPcS0_NS_21__floating_decimal_32ENS_12chars_formatEjjE21_Max_shifted_mantissa
_stderr
_ReadBufferExtended
__ZTINSt3__214codecvt_bynameIcc11__mbstate_tEE
__ZTINSt3__29time_baseE
__ZTTNSt3__214basic_iostreamIcNS_11char_traitsIcEEEE
__ZTVNSt3__26locale5facetE
__ZTVNSt3__214collate_bynameIcEE
_repalloc
_pthread_cond_signal
_pthread_mutexattr_settype
__ZTVNSt3__220__shared_ptr_emplaceINS_4__fs10filesystem28recursive_directory_iterator12__shared_impENS_9allocatorIS4_EEEE
__ZTVNSt3__28time_putIcNS_19ostreambuf_iteratorIcNS_11char_traitsIcEEEEEE
__ZTCNSt3__214basic_ofstreamIcNS_11char_traitsIcEEEE0_NS_13basic_ostreamIcS2_EE
_ShmemInitHash
__ZNSt3__25wclogE
__ZTSNSt3__220__codecvt_utf8_utf16IDsEE
__ZTSNSt3__220__time_get_c_storageIcEE
_interactive_write
_ConditionVariableInit
__ZNSt3__222__FLOAT_POW5_INV_SPLITE
_fclose
_SPI_scroll_cursor_move
__ZNSt3__2eqB8nn180100IPKcPcEEbRKNS_11__wrap_iterIT_EERKNS4_IT0_EE
__ZNSt3__210moneypunctIcLb1EE2idE
___cxa_rethrow_primary_exception
_shm_toc_allocate
__ZTINSt3__27num_putIwNS_19ostreambuf_iteratorIwNS_11char_traitsIwEEEEEE
__ZNSt3__220__check_for_overflowB8nn180100ILm4EEENS_9enable_ifIXeqT_Li4EEvE4typeEm
__ZTVNSt3__215basic_streambufIwNS_11char_traitsIwEEEE
__ZTINSt3__210moneypunctIcLb1EEE
_GetNamedLWLockTranche
__ZTINSt3__217__assoc_sub_stateE
__ZTVNSt3__214basic_ofstreamIcNS_11char_traitsIcEEEE
_init_MultiFuncCall
_RegisterSnapshot
_jsonb_in
_DirectFunctionCall4Coll
__ZTSSt16nested_exception
__ZTSNSt3__210istrstreamE
_SnapshotAnyData
__ZTSNSt3__211regex_errorE
__ZTSNSt3__215numpunct_bynameIcEE
_strtof
__ZTSNSt3__214codecvt_bynameIDic11__mbstate_tEE
__ZTINSt3__220__shared_ptr_emplaceINS_4__fs10filesystem12__dir_streamENS_9allocatorIS3_EEEE
__ZNSt3__26localeaSERKS0_
_RelationNameGetTupleDesc
__ZNSt3__24__fs10filesystemaNB8nn180100ERNS1_5permsES2_
_get_fn_expr_argtype
_pthread_atfork
__ZTCNSt3__29strstreamE8_NS_13basic_ostreamIcNS_11char_traitsIcEEEE
__ZTINSt3__220__time_get_c_storageIcEE
__ZTINSt3__27codecvtIDic11__mbstate_tEE
_ArrayGetNItems
_llround
__ZNSt3__2neB8nn180100IPwEEbRKNS_11__wrap_iterIT_EES6_
__ZTINSt3__26locale5facetE
__ZTINSt3__215basic_streambufIwNS_11char_traitsIwEEEE
_fprintf
__ZTINSt3__215__codecvt_utf16IDiLb1EEE
_tuplesort_attach_shared
__ZNSt3__27collateIcE2idE
_SPI_plan_get_cached_plan
_roundf
_AggCheckCallContext
__ZTVNSt3__29money_getIcNS_19istreambuf_iteratorIcNS_11char_traitsIcEEEEEE
_LockRelationForExtension
_getinternalerrposition
__ZTINSt3__220__codecvt_utf8_utf16IDsEE
_float_to_shortest_decimal_buf
_hash_create
__ZTVNSt3__29money_getIwNS_19istreambuf_iteratorIwNS_11char_traitsIwEEEEEE
__ZTSNSt3__212system_errorE
_clearerr
_index_open
__ZTSNSt3__214codecvt_bynameIcc11__mbstate_tEE
__ZTSNSt3__210moneypunctIcLb0EEE
_memcpy
_mbrtowc
__ZTINSt3__217moneypunct_bynameIcLb0EEE
_scanner_finish
__ZTINSt3__215basic_stringbufIcNS_11char_traitsIcEENS_9allocatorIcEEEE
_uselocale
_standard_ExecutorFinish
_pthread_getspecific
_truncate
_iconv_close
_nocachegetattr
_SPI_execute_plan
__ZTSNSt3__210__stdinbufIwEE
___small_fprintf
__ZTINSt3__29strstreamE
_WinGetPartitionLocalMemory
__ZTVNSt3__28messagesIwEE
_ftell
_read
__ZTSNSt12experimental19bad_optional_accessE
__ZNSt3__219ostreambuf_iteratorIcNS_11char_traitsIcEEEaSB8nn180100Ec
__ZTINSt3__210moneypunctIwLb1EEE
__ZTSNSt3__213messages_baseE
_HeapTupleHeaderGetDatum
__ZTINSt3__212bad_weak_ptrE
_pthread_mutex_unlock
__ZTINSt3__217__widen_from_utf8ILm16EEE
_iswcntrl_l
_pthread_mutex_destroy
_MemoryContextAllocExtended
_SPI_result_code_string
__ZTSNSt3__28time_putIcNS_19ostreambuf_iteratorIcNS_11char_traitsIcEEEEEE
_pgstat_assoc_relation
___cxa_bad_typeid
__ZTINSt3__217moneypunct_bynameIcLb1EEE
__ZTSNSt3__220__codecvt_utf8_utf16IDiEE
_SPI_execute_extended
_strstr
_geterrposition
_BlockSampler_Init
__ZTINSt3__214__num_put_baseE
__ZTSNSt3__215messages_bynameIwEE
_wcstol
__ZTVNSt3__214collate_bynameIwEE
__ZTVSt14overflow_error
_WaitForParallelWorkersToFinish
__ZTINSt3__25ctypeIwEE
__ZTVNSt3__25ctypeIwEE
__ZTINSt3__215__codecvt_utf16IDsLb1EEE
__ZTINSt3__27codecvtIDsc11__mbstate_tEE
__ZTVNSt3__28time_putIwNS_19ostreambuf_iteratorIwNS_11char_traitsIwEEEEEE
_close
_strtoull_l
__ZTVNSt3__26locale5__impE
__ZTSNSt3__215basic_streambufIwNS_11char_traitsIwEEEE
_check_stack_depth
__ZTVNSt3__217moneypunct_bynameIwLb1EEE
__ZTVNSt3__220__shared_ptr_emplaceINS_4__fs10filesystem12__dir_streamENS_9allocatorIS3_EEEE
__ZTINSt3__28time_putIcNS_19ostreambuf_iteratorIcNS_11char_traitsIcEEEEEE
__ZNSt3__2eqB8nn180100IwPFvPvEEEbRKNS_10unique_ptrIT_T0_EEDn
_shmem_request_hook
_strtoll
__ZNSt3__27codecvtIDsDu11__mbstate_tE2idE
_errhint
_type_is_rowtype
_expanded_record_set_tuple
_fmod
_atan2l
_InitMaterializedSRF
_getmissingattr
_memset
_fflush
__ZTINSt3__28ios_base7failureE
_index_close
__ZTSNSt3__211__stdoutbufIcEE
_fd_durable_rename
__ZTINSt3__210__stdinbufIcEE
_GUC_check_errdetail_string
_pg_sprintf
_errstart_cold
_bsearch
__ZNSt3__211__wrap_iterIPwEpLB8nn180100El
__ZTSNSt3__223__system_error_categoryE
_mbsnrtowcs
__ZTSNSt3__215__time_get_tempIwEE
_calloc
__ZTSNSt3__212future_errorE
_get_opfamily_member
_WinGetCurrentPosition
_pthread_cond_broadcast
__ZNSt3__27codecvtIcc11__mbstate_tE2idE
__ZTSNSt3__215time_put_bynameIwNS_19ostreambuf_iteratorIwNS_11char_traitsIwEEEEEE
__ZTSNSt3__212ctype_bynameIcEE
__ZTINSt3__211__money_putIcEE
__ZTSNSt3__28ios_baseE
__ZTCNSt3__29strstreamE0_NS_14basic_iostreamIcNS_11char_traitsIcEEEE
_LWLockRegisterTranche
_EOH_flatten_into
_CopyErrorData
__ZTVNSt3__210ostrstreamE
__ZTVNSt3__215basic_streambufIcNS_11char_traitsIcEEEE
_SPI_execute
_BufferUsageAccumDiff
_WinGetFuncArgInPartition
_deconstruct_array
_palloc
__ZNKSt3__214error_categoryeqB8nn180100ERKS0_
_standard_ExecutorEnd
_strerror
_plan_create_index_workers
__ZNSt3__2eqB8nn180100ERKNS_10error_codeERKNS_15error_conditionE
_DirectFunctionCall2Coll
_datumCopy
__ZTINSt3__215numpunct_bynameIwEE
_unlinkat
_strspn
__ZNSt3__210unique_ptrIwPFvPvEEaSB8nn180100EOS4_
_SPI_cursor_parse_open
_ReThrowError
_isgraph
_tuplesort_reset
_SetTuplestoreDestReceiverParams
__ZTSNSt3__212strstreambufE
__ZNSt3__2eqB8nn180100IcNS_11char_traitsIcEEEEbRKNS_19istreambuf_iteratorIT_T0_EES8_
_GetCommandTagName
_get_typlen
__ZTVNSt3__211regex_errorE
_SPI_cursor_fetch
_iswlower_l
_pthread_cond_wait
__ZNSt3__213basic_istreamIcNS_11char_traitsIcEEEaSEOS3_
__ZTVNSt3__214codecvt_bynameIwc11__mbstate_tEE
_tuplesort_gettupleslot
_log_newpage_range
_RangeVarGetRelidExtended
_std_typanalyze
_add_reloption_kind
___cxa_uncaught_exceptions
_putchar
__ZTSNSt3__216__narrow_to_utf8ILm16EEE
_iswupper_l
_iswspace_l
_make_expanded_record_from_tupdesc
__ZTVNSt3__210__stdinbufIcEE
__ZTSNSt3__29strstreamE
_SPI_freeplan
_dladdr
_towupper_l
_pg_detoast_datum_copy
__ZTSNSt3__214codecvt_bynameIDsc11__mbstate_tEE
_sin
_qsort
_table_parallelscan_estimate
__ZTVNSt3__23pmr15memory_resourceE
_SPI_gettype
__ZTSNSt3__217moneypunct_bynameIcLb1EEE
__ZTVNSt3__23pmr28unsynchronized_pool_resourceE
_ScanKeyInit
__ZTCNSt3__219basic_ostringstreamIcNS_11char_traitsIcEENS_9allocatorIcEEEE0_NS_13basic_ostreamIcS2_EE
__ZTINSt3__210moneypunctIcLb0EEE
_closedir
_realloc
__ZTVNSt3__212future_errorE
__ZTVNSt3__28messagesIcEE
_LookupTypeName
_fopen
__ZTINSt3__215time_put_bynameIwNS_19ostreambuf_iteratorIwNS_11char_traitsIwEEEEEE
__ZTVNSt3__217moneypunct_bynameIwLb0EEE
__ZTTNSt3__218basic_stringstreamIcNS_11char_traitsIcEENS_9allocatorIcEEEE
__ZTSNSt3__25ctypeIwEE
_strchr
_isdigit_l
_bms_add_member
__ZTVSt16nested_exception
_appendStringInfoString
_InstrEndLoop
_TTSOpsVirtual
_FlushErrorState
_SPI_result
_bms_is_member
_ProcessUtility_hook
__ZTVNSt3__210istrstreamE
_list_sort
_SPI_commit
_get_attnum
_tuplesort_puttupleslot
_RegisterSubXactCallback
_SPI_scroll_cursor_fetch
_errfinish
__ZNSt3__212basic_stringIcNS_11char_traitsIcEENS_9allocatorIcEEEaSEc
__ZTTNSt3__213basic_istreamIcNS_11char_traitsIcEEEE
__ZTINSt3__218__time_get_storageIwEE
_dlsym
_check_function_bodies
_isxdigit_l
__ZTVNSt3__27collateIwEE
__ZTSNSt3__210ctype_baseE
_MemoryContextAllocZeroAligned
__ZTSNSt3__215__codecvt_utf16IwLb0EEE
__ZNSt3__28numpunctIcE2idE
_regclassin
__ZTINSt3__28ios_baseE
_InterruptPending
_tolower
__ZTSNSt3__29time_baseE
_FunctionCall2Coll
__ZTISt18bad_variant_access
_tuplesort_performsort
__ZTISt9exception
__ZTINSt3__215time_get_bynameIcNS_19istreambuf_iteratorIcNS_11char_traitsIcEEEEEE
__ZTSNSt3__27collateIcEE
_SPI_freetuptable
_end_MultiFuncCall
_table_parallelscan_initialize
__ZTVNSt3__23pmr25monotonic_buffer_resourceE
_ArrayGetIntegerTypmods
_fstat
_datumTransfer
_RelationIdGetRelation
__ZTINSt3__213messages_baseE
_coerce_to_target_type
__ZTINSt3__23pmr26synchronized_pool_resourceE
__ZTVNSt3__213basic_ostreamIcNS_11char_traitsIcEEEE
__ZTSNSt3__214collate_bynameIcEE
__ZTINSt3__29money_getIwNS_19istreambuf_iteratorIwNS_11char_traitsIwEEEEEE
__ZTSNSt3__28time_getIwNS_19istreambuf_iteratorIwNS_11char_traitsIwEEEEEE
_strcpy
_SysCacheGetAttrNotNull
__ZNSt3__225_General_precision_tablesIfE6_Max_PE
_guc_malloc
_toast_raw_datum_size
_Float8GetDatum
_ldexp
_MemoryContextMemAllocated
__ZNSt3__2eqB8nn180100IPNS_17basic_string_viewIcNS_11char_traitsIcEEEEEEbRKNS_11__wrap_iterIT_EESA_
_PinPortal
_snprintf
__ZTSNSt3__27codecvtIDsc11__mbstate_tEE
__ZNSt3__2eqB8nn180100ERKNS_15error_conditionES2_
_fputs
___small_printf
_DecrTupleDescRefCount
__ZNSt3__210unique_ptrIjPFvPvEEaSB8nn180100EOS4_
_MakeSingleTupleTableSlot
_per_MultiFuncCall
__ZTTNSt3__213basic_ostreamIwNS_11char_traitsIwEEEE
_pthread_mutexattr_destroy
__ZTSNSt3__218__time_get_storageIcEE
_sched_yield
_add_size
__ZNSt3__212basic_stringIwNS_11char_traitsIwEENS_9allocatorIwEEEaSB8nn180100EOS5_
__ZTSNSt3__26locale5facetE
_resolve_polymorphic_argtypes
__ZTVNSt3__212ctype_bynameIwEE
___cxa_decrement_exception_refcount
_CreateTupleDescCopy
_systable_beginscan
__ZTISt16nested_exception
__ZTSNSt3__215time_get_bynameIwNS_19istreambuf_iteratorIwNS_11char_traitsIwEEEEEE
_GetCurrentTransactionId
__ZNSt3__225_General_precision_tablesIdE17_Ordinary_X_tableE
_freelocale
_GenericXLogStart
__ZTSNSt3__29money_putIcNS_19ostreambuf_iteratorIcNS_11char_traitsIcEEEEEE
_openat
_systable_getnext
_siprintf
_wcscoll_l
_DefineCustomIntVariable
_ConditionVariableCancelSleep
__ZNSt3__26locale2id9__next_idE
_index_getprocinfo
__ZNSt3__27num_getIcNS_19istreambuf_iteratorIcNS_11char_traitsIcEEEEE2idE
__ZNSt3__2eqB8nn180100I11__mbstate_tEEbRKNS_4fposIT_EES6_
_expanded_record_set_field_internal
_DirectFunctionCall3Coll
_UnlockReleaseBuffer
__ZTSNSt3__28time_putIwNS_19ostreambuf_iteratorIwNS_11char_traitsIwEEEEEE
__ZTINSt3__217__widen_from_utf8ILm32EEE
__ZNSt3__213__MIN_BLOCK_2E
__ZTINSt3__29__num_getIwEE
__ZTSNSt3__213basic_istreamIwNS_11char_traitsIwEEEE
_UnregisterSnapshot
_getpid
_FreeAccessStrategy
__ZTVSt9exception
_tuplesort_begin_heap
_wcslen
_wcstoll
__ZNSt3__2eqB8nn180100IPcEEbRKNS_11__wrap_iterIT_EES6_
__ZZNSt3__210__to_charsB8nn180100EPcS0_NS_21__floating_decimal_32ENS_12chars_formatEjjE11_Adjustment
_get_rel_name
__ZTSNSt3__217__widen_from_utf8ILm32EEE
_palloc0
__ZTSNSt3__23pmr26synchronized_pool_resourceE
_get_typcollation
__ZTISt13runtime_error
_swprintf
_fchmod
_strftime_l
_typeStringToTypeName
_SPI_execute_plan_extended
__ZNSt3__26__itoa10__pow10_32E
__ZNSt3__225_General_precision_tablesIdE6_Max_PE
_GetCurrentSubTransactionId
_get_rel_type_id
__ZTSNSt3__29money_getIwNS_19istreambuf_iteratorIwNS_11char_traitsIwEEEEEE
__ZTVNSt3__27codecvtIDic11__mbstate_tEE
_SPI_execute_with_args
__ZTINSt3__220__shared_ptr_emplaceINS_4__fs10filesystem28recursive_directory_iterator12__shared_impENS_9allocatorIS4_EEEE
_isatty
__ZNSt3__210moneypunctIwLb1EE2idE
_get_collation_oid
_acos
_IsValidJsonNumber
__ZNSt3__2eqB8nn180100IwNS_11char_traitsIwEEEEbRKNS_19istreambuf_iteratorIT_T0_EES8_
__ZTINSt3__28messagesIwEE
_timestamp2tm
_SearchSysCache3
__ZTSNSt3__214__num_put_baseE
_strtok
_numeric_float4
__ZTSNSt3__28time_getIcNS_19istreambuf_iteratorIcNS_11char_traitsIcEEEEEE
__ZTINSt3__28numpunctIcEE
__ZNSt3__28numpunctIwE2idE
_mbtowc
_WinGetFuncArgCurrent
_wal_level
_exprType
_get_call_result_type
__ZZNSt3__210__to_charsB8nn180100EPcS0_NS_21__floating_decimal_64ENS_12chars_formatEdE11_Adjustment
__ZTVSt12length_error
___ctype_get_mb_cur_max
__ZTSNSt3__29basic_iosIcNS_11char_traitsIcEEEE
___cxa_throw
_ExprEvalPushStep
__ZTSNSt3__27codecvtIDic11__mbstate_tEE
__ZTINSt3__213basic_istreamIwNS_11char_traitsIwEEEE
_toupper_l
_array_create_iterator
_makeStringInfo
_ConditionVariableSleep
__ZTISt11logic_error
__ZTINSt3__29money_putIcNS_19ostreambuf_iteratorIcNS_11char_traitsIcEEEEEE
_DefineCustomBoolVariable
_pg_any_to_server
__ZTINSt3__210__time_getE
_ItemPointerEquals
__ZTSNSt3__215time_put_bynameIcNS_19ostreambuf_iteratorIcNS_11char_traitsIcEEEEEE
___cxa_pure_virtual
__ZTINSt3__215__codecvt_utf16IwLb1EEE
_localeconv
_expand_array
_strcmp
_hypot
_typenameTypeIdAndMod
_EnableQueryId
_appendStringInfo
_namein
_BlockSampler_HasMore
_ResourceOwnerDelete
_stringToQualifiedNameList
_WaitForParallelWorkersToAttach
_appendBinaryStringInfo
_RelationClose
_get_attstatsslot
_CreateExecutorState
__ZTINSt3__219__shared_weak_countE
__ZTVNSt3__220__time_get_c_storageIwEE
_hash_search
_pg_bindtextdomain
___multi3
_atan2
_rename
__ZTINSt3__214codecvt_bynameIDic11__mbstate_tEE
_pq_endtypsend
_RollbackAndReleaseCurrentSubTransaction
__ZNSt3__212__rs_default4__c_E
__ZNSt3__27num_putIcNS_19ostreambuf_iteratorIcNS_11char_traitsIcEEEEE2idE
__ZTINSt3__215time_get_bynameIwNS_19istreambuf_iteratorIwNS_11char_traitsIwEEEEEE
_makeString
__ZTSNSt3__210__time_putE
_index_form_tuple
_pg_detoast_datum_packed
_mbrlen
__ZTSNSt3__217moneypunct_bynameIwLb0EEE
_make_opclause
_heap_deform_tuple
__ZTVN10__cxxabiv120__si_class_type_infoE
_pairingheap_first
__ZTVNSt3__214codecvt_bynameIDic11__mbstate_tEE
_getTempRet0
_get_call_expr_argtype
__ZTSNSt3__29__num_getIcEE
__ZTSNSt3__27collateIwEE
_LockPage
_iswxdigit_l
_tuplesort_end
_ScanKeywordTokens
_PopActiveSnapshot
__ZTINSt3__211regex_errorE
_pthread_detach
__ZTINSt3__215messages_bynameIwEE
__ZNSt3__223__DOUBLE_POW5_INV_SPLITE
__ZTINSt3__218__time_get_storageIcEE
_log10
_BlockSampler_Next
_MemoryContextDelete
__ZNSt3__214basic_iostreamIcNS_11char_traitsIcEEEaSEOS3_
___cxa_atexit
__ZNSt3__28time_getIcNS_19istreambuf_iteratorIcNS_11char_traitsIcEEEEE2idE
__ZTINSt3__219basic_ostringstreamIcNS_11char_traitsIcEENS_9allocatorIcEEEE
_pg_strcasecmp
__ZTINSt3__210__stdinbufIwEE
__ZTSNSt3__23pmr15memory_resourceE
__ZTSNSt3__218basic_stringstreamIcNS_11char_traitsIcEENS_9allocatorIcEEEE
_localtime
_LaunchParallelWorkers
__ZTVNSt3__28time_getIwNS_19istreambuf_iteratorIwNS_11char_traitsIwEEEEEE
_get_base_element_type
_CreateParallelContext
_FreeCachedExpression
_list_make1_impl
_wmemcmp
_MemoryContextSetParent
_TupleDescInitEntry
__ZTSNSt3__28messagesIwEE
_tolower_l
___ctype_tolower_loc
__ZTTNSt3__219basic_istringstreamIcNS_11char_traitsIcEENS_9allocatorIcEEEE
__ZNSt3__26vectorIPNS_6locale5facetENS_15__sso_allocatorIS3_Lm30EEEEaSB8nn180100ERKS6_
_TopMemoryContext
_free_attstatsslot
_get_func_arg_info
_unlink
_tuplestore_begin_heap
__ZTSNSt3__27codecvtIDsDu11__mbstate_tEE
_iswblank_l
_numeric_in
_tuplestore_tuple_count
__ZSteqB8nn180100RKSt13exception_ptrS1_
_pgWalUsage
_GetSysCacheOid
__ZNSt3__215basic_stringbufIcNS_11char_traitsIcEENS_9allocatorIcEEEaSEOS5_
_EnterParallelMode
_IsUnderPostmaster
_BeginInternalSubTransaction
__ZTSNSt3__215basic_streambufIcNS_11char_traitsIcEEEE
_ReleaseBuffer
_SPI_register_trigger_data
_fputc
_wmemchr
_index_getprocid
__ZTVNSt3__210moneypunctIcLb1EEE
_expanded_record_get_tuple
__ZTVNSt3__29strstreamE
_iswdigit_l
_SPI_modifytuple
_SPI_palloc
__ZTVNSt3__23pmr26__null_memory_resource_impE
_strncmp
__ZTVNSt3__210moneypunctIwLb0EEE
_nocache_index_getattr
_pnstrdup
__ZTVNSt3__27num_getIcNS_19istreambuf_iteratorIcNS_11char_traitsIcEEEEEE
__ZTTNSt3__214basic_ifstreamIcNS_11char_traitsIcEEEE
_makeRangeVar
__ZTSNSt3__211__money_putIcEE
__ZTVNSt3__215time_get_bynameIwNS_19istreambuf_iteratorIwNS_11char_traitsIwEEEEEE
_TopTransactionContext
__ZTINSt3__27codecvtIDsDu11__mbstate_tEE
_pthread_self
_exp
_puts
__ZTISt16invalid_argument
_list_copy
_wcsxfrm_l
_pg_repl_raf
_modf
__ZTINSt3__214__codecvt_utf8IDsEE
__ZTINSt3__211__money_getIwEE
_pfree
__ZTVNSt3__218basic_stringstreamIcNS_11char_traitsIcEENS_9allocatorIcEEEE
__ZTINSt3__27codecvtIDiDu11__mbstate_tEE
_get_func_name
_get_commutator
__ZTINSt3__211__stdoutbufIwEE
__ZNSt3__2neB8nn180100IPKcPcEEbRKNS_11__wrap_iterIT_EERKNS4_IT0_EE
_OidOutputFunctionCall
__ZTINSt3__210istrstreamE
__ZTVNSt3__215numpunct_bynameIcEE
_get_typtype
__ZTVNSt3__212system_errorE
_GetErrorContextStack
__ZTINSt3__25ctypeIcEE
___wasm_setjmp
__ZNSt3__2neB8nn180100IPPNS_17__assoc_sub_stateEEEbRKNS_11__wrap_iterIT_EES8_
_pthread_mutexattr_init
_get_element_type
__ZTSNSt3__217moneypunct_bynameIcLb0EEE
_expanded_record_set_fields
__ZNSt3__2neB8nn180100IPNS_4pairINS_17basic_string_viewIcNS_11char_traitsIcEEEENS_4__fs10filesystem12PathPartKindEEEEEbRKNS_11__wrap_iterIT_EESF_
__ZTSNSt3__214basic_iostreamIcNS_11char_traitsIcEEEE
__ZTSNSt3__215__codecvt_utf16IwLb1EEE
_parser_errposition
__ZTVSt13runtime_error
_ScanKeywords
_wctob
__ZTVNSt3__27codecvtIcc11__mbstate_tEE
__ZTINSt3__220__codecvt_utf8_utf16IDiEE
_LockBuffer
_is_pseudo_constant_for_index
_remove
_SearchSysCache2
_CachedPlanAllowsSimpleValidityCheck
__ZTVNSt3__215time_get_bynameIcNS_19istreambuf_iteratorIcNS_11char_traitsIcEEEEEE
__ZNSt3__214__POW10_OFFSETE
_pg_detoast_datum_slice
_SPI_keepplan
_list_concat
_CallerFInfoFunctionCall2
__ZTCNSt3__218basic_stringstreamIcNS_11char_traitsIcEENS_9allocatorIcEEEE8_NS_13basic_ostreamIcS2_EE
__ZTVNSt3__211__stdoutbufIcEE
__ZTSNSt3__29money_getIcNS_19istreambuf_iteratorIcNS_11char_traitsIcEEEEEE
_strtod_l
_scalbn
__ZNSt3__213basic_ostreamIcNS_11char_traitsIcEEEaSEOS3_
_DirectFunctionCall5Coll
__ZTSNSt3__220__time_get_c_storageIwEE
_PageGetFreeSpace
_wcstold
_pthread_mutex_trylock
_sscanf
__ZNSt3__24__fs10filesystem4pathdVB8nn180100INS_17basic_string_viewIcNS_11char_traitsIcEEEEEENS_9enable_ifIXsr13__is_pathableIT_EE5valueERS2_E4typeERKS9_
_sinl
_hash_seq_init
_pathconf
_errcode
_systable_endscan
_UnlockPage
__ZTINSt12experimental19bad_optional_accessE
__ZTSSt18bad_variant_access
__ZNSt3__210shared_ptrINS_4__fs10filesystem12__dir_streamEEaSB8nn180100EOS4_
__ZTSNSt3__29__num_putIcEE
_tas_sema
__ZTSNSt3__213basic_filebufIcNS_11char_traitsIcEEEE
_atoi
_iswalpha_l
_raw_parser
__ZTVNSt3__214basic_iostreamIcNS_11char_traitsIcEEEE
_FunctionCall0Coll
_main_repl
_InstrAlloc
__ZTINSt3__220__codecvt_utf8_utf16IwEE
_hash_estimate_size
_CallerFInfoFunctionCall1
__ZNSt3__28ios_base9__xindex_E
__ZNSt3__28time_getIwNS_19istreambuf_iteratorIwNS_11char_traitsIwEEEEE2idE
_scanner_isspace
_unpack_sql_state
__ZNSt3__225_General_precision_tablesIdE16_Special_X_tableE
_SPI_cursor_close
_pthread_key_create
_pq_getmsgfloat4
__ZTINSt3__215numpunct_bynameIcEE
_pthread_join
__ZNSt3__26ranges5__cpo9iter_moveE
__ZTSNSt3__214basic_ifstreamIcNS_11char_traitsIcEEEE
__ZNSt3__24coutE
_fdopen
__ZTSNSt3__214codecvt_bynameIDsDu11__mbstate_tEE
_fmin
__ZTSNSt3__214__codecvt_utf8IDsEE
__ZTISt14overflow_error
_LWLockInitialize
__ZTSNSt3__212bad_weak_ptrE
__ZNSt3__2eqB8nn180100IPNS_4pairINS_17basic_string_viewIcNS_11char_traitsIcEEEENS_4__fs10filesystem12PathPartKindEEEEEbRKNS_11__wrap_iterIT_EESF_
_memmove
__ZTCNSt3__210ostrstreamE0_NS_13basic_ostreamIcNS_11char_traitsIcEEEE
__ZTSNSt3__215__codecvt_utf16IDiLb0EEE
__ZNSt3__2neB8nn180100IPNS_17basic_string_viewIcNS_11char_traitsIcEEEEEEbRKNS_11__wrap_iterIT_EESA_
__ZTINSt3__216__narrow_to_utf8ILm32EEE
_appendStringInfoChar
_array_iterate
_process_shared_preload_libraries_in_progress
_strtold
__ZTSNSt3__220__codecvt_utf8_utf16IwEE
_detoast_external_attr
__ZTVNSt3__29money_putIwNS_19ostreambuf_iteratorIwNS_11char_traitsIwEEEEEE
_lstat
__ZTSNSt3__210moneypunctIwLb1EEE
_get_namespace_name
_cosh
__ZTVNSt3__214codecvt_bynameIDsc11__mbstate_tEE
_s_lock
_EncodeTimeOnly
_construct_md_array
__ZNSt3__28time_putIwNS_19ostreambuf_iteratorIwNS_11char_traitsIwEEEEE2idE
__ZTSNSt3__27num_putIwNS_19ostreambuf_iteratorIwNS_11char_traitsIwEEEEEE
_PageIndexMultiDelete
_ExecInitExpr
_MemoryContextGetParent
___extenddftf2
__ZTSNSt3__215numpunct_bynameIwEE
_pg_global_prng_state
__ZTVSt12out_of_range
_SPI_fnumber
_get_typbyval
_SPI_rollback_and_chain
__ZTINSt3__28time_getIcNS_19istreambuf_iteratorIcNS_11char_traitsIcEEEEEE
__ZTSNSt3__212ctype_bynameIwEE
_atof
_pre_format_elog_string
__ZNSt3__210moneypunctIcLb0EE2idE
__ZTINSt3__27codecvtIcc11__mbstate_tEE
_LookupFuncName
__ZTVNSt3__214codecvt_bynameIDsDu11__mbstate_tEE
_wcstoull
_escape_json
_vfprintf
_open
_strxfrm_l
__ZTINSt3__218basic_stringstreamIcNS_11char_traitsIcEENS_9allocatorIcEEEE
_strrchr
_ParallelWorkerNumber
_expanded_record_fetch_tupdesc
_ftello
__ZNSt3__211__wrap_iterIPKwEpLB8nn180100El
_CachedPlanIsSimplyValid
__ZTVNSt3__217__assoc_sub_stateE
_pthread_mutex_lock
__ZTVNSt3__24__fs10filesystem16filesystem_errorE
_BuildIndexInfo
_wcstoul
_PushActiveSnapshot
_FreeExecutorState
_SPI_copytuple
__ZTINSt3__210ostrstreamE
__ZTVNSt3__213basic_filebufIcNS_11char_traitsIcEEEE
_pq_sendfloat4
__ZTINSt3__23pmr15memory_resourceE
_time
__ZNSt3__218__libcpp_refstringaSERKS0_
___wasm_setjmp_test
__ZTINSt3__214__num_get_baseE
_stat
__ZNSt3__24__fs10filesystemeqB8nn180100ERKNS1_18directory_iteratorES4_
__ZTVNSt3__27codecvtIDiDu11__mbstate_tEE
_acosl
__ZTSNSt3__27codecvtIcc11__mbstate_tEE
__ZTVNSt3__27collateIcEE
_maintenance_work_mem
_TypenameGetTypid
__ZNSt3__27codecvtIDic11__mbstate_tE2idE
_CheckFunctionValidatorAccess
__ZTVNSt3__28numpunctIcEE
_lround
_ExecInitExprWithParams
_get_tablespace_page_costs
__ZTINSt3__215__codecvt_utf16IDsLb0EEE
_strlen
_pg_qsort
_ParseDateTime
_ReleaseCachedPlan
_asinh
_internalerrquery
_malloc
__ZNSt3__212basic_stringIcNS_11char_traitsIcEENS_9allocatorIcEEEpLB8nn180100Ec
_resetStringInfo
__ZTSNSt3__210__stdinbufIcEE
__ZTVNSt3__220__time_get_c_storageIcEE
_EnsurePortalSnapshotExists
_errdetail
_PageInit
__ZNSt3__212basic_stringIcNS_11char_traitsIcEENS_9allocatorIcEEEaSB8nn180100EOS5_
_list_delete_last
__ZNSt3__25wcerrE
_MakeExpandedObjectReadOnlyInternal
_CleanQuerytext
_UnregisterXactCallback
_NameListToString
_LWLockRelease
_tuplesort_estimate_shared
_FuncnameGetCandidates
_SPI_prepare_extended
__ZTCNSt3__214basic_iostreamIcNS_11char_traitsIcEEEE0_NS_13basic_istreamIcS2_EE
__ZTVN10__cxxabiv121__vmi_class_type_infoE
_cosl
___errno_location
_strtoll_l
__ZTSNSt3__27codecvtIDiDu11__mbstate_tEE
_SPI_returntuple
_text_to_cstring
_SPI_connect
__ZTVNSt3__27codecvtIwc11__mbstate_tEE
_s_unlock_sema
_CreateTemplateTupleDesc
_pqsignal
_strtold_l
__ZNSt3__216__POW10_OFFSET_2E
__ZTSNSt3__215__codecvt_utf16IDiLb1EEE
__ZTINSt3__212future_errorE
__ZTVNSt3__217moneypunct_bynameIcLb1EEE
_TTSOpsMinimalTuple
___multf3
_iconv
_InitializeParallelDSM
__ZTSNSt3__23pmr25monotonic_buffer_resourceE
_sysconf
__ZTSNSt3__218__time_get_storageIwEE
_find_coercion_pathway
__ZTINSt3__214basic_ifstreamIcNS_11char_traitsIcEEEE
_fputwc
_s_init_lock_sema
_log
__ZTINSt3__210ctype_baseE
_SPI_rollback
_pairingheap_free
_BufferGetBlockNumber
_standard_ExecutorStart
__ZNSt3__29money_getIcNS_19istreambuf_iteratorIcNS_11char_traitsIcEEEEE2idE
__ZTINSt3__214error_categoryE
__ZTTNSt3__210ostrstreamE
___THREW__
_RequestNamedLWLockTranche
__ZNSt3__215__POW10_SPLIT_2E
_errmsg
_tm2timestamp
_shmem_startup_hook
__ZTVNSt3__214codecvt_bynameIDiDu11__mbstate_tEE
_stdin
_pg_number_of_ones
_error_context_stack
_errmsg_plural
_setTempRet0
_table_close
_getenv
__ZTSNSt3__217bad_function_callE
_wcrtomb
_ProcessInterrupts
_realpath
_setlocale
__ZTCNSt3__219basic_istringstreamIcNS_11char_traitsIcEENS_9allocatorIcEEEE0_NS_13basic_istreamIcS2_EE
_iswpunct_l
__ZTSNSt3__214__num_get_baseE
__ZTSNSt3__23pmr32__new_delete_memory_resource_impE
_fseek
_MarkGUCPrefixReserved
__ZTVNSt3__212ctype_bynameIcEE
__ZNSt3__212basic_stringIcNS_11char_traitsIcEENS_9allocatorIcEEEpLB8nn180100ERKS5_
_vasprintf
_build_reloptions
__ZTSNSt3__223__future_error_categoryE
__ZTSNSt3__211__money_putIwEE
_pq_getmsgint
_iconv_open
___trunctfdf2
__ZTINSt3__27codecvtIwc11__mbstate_tEE
___cxa_current_primary_exception
_standard_planner
__ZNSt3__212basic_stringIwNS_11char_traitsIwEENS_9allocatorIwEEEaSB8nn180100EPKw
__ZNSt3__26chronossB8nn180100IxNS_5ratioILx1ELx1000000000EEExS3_Q20three_way_comparableINS_11common_typeIJT_T1_EE4typeEEEEDaRKNS0_8durationIS5_T0_EERKNS9_IS6_T2_EE
_get_typlenbyvalalign
_isspace
__ZTVNSt3__28ios_baseE
__ZTSNSt3__24__fs10filesystem16filesystem_errorE
_getBaseType
__ZTINSt3__219__iostream_categoryE
_array_contains_nulls
_pg_prng_uint32
_toupper
__ZNSt3__26__itoa16_Charconv_digitsE
__ZNSt3__26chronossB8nn180100IxNS_5ratioILx1ELx1000000000EEExNS2_ILx1ELx1000000EEEQ20three_way_comparableINS_11common_typeIJT_T1_EE4typeEEEEDaRKNS0_8durationIS6_T0_EERKNSA_IS7_T2_EE
_MemoryContextAllocZero
_pg_do_encoding_conversion
__ZTSNSt3__214codecvt_bynameIwc11__mbstate_tEE
_MemoryContextRegisterResetCallback
_BuildTupleFromCStrings
_heap_form_tuple
_ungetc
___cxa_allocate_exception
_table_beginscan_parallel
__ZTINSt3__27num_getIwNS_19istreambuf_iteratorIwNS_11char_traitsIwEEEEEE
_getTypeOutputInfo
_emscripten_longjmp
_get_restriction_variable
_errdetail_internal
_pg_shutdown
__ZSt7nothrow
_scanner_init
_pgBufferUsage
_strncpy
__ZNSt3__24__fs10filesystemeqB8nn180100ERKNS1_4pathES4_
__ZTINSt3__212ctype_bynameIwEE
_MemoryContextReset
_strtof_l
__ZNSt3__24__fs10filesystem4pathdVB8nn180100IA1_cEENS_9enable_ifIXsr13__is_pathableIT_EE5valueERS2_E4typeERKS6_
_RelationGetIndexList
_GetMemoryChunkContext
_pg_prng_double
_FunctionCall1Coll
_MemoryContextSetIdentifier
_heap_getsysattr
__ZTSNSt3__215__time_get_tempIcEE
_hash_seq_term
_TupleDescInitEntryCollation
_remainder
_pairingheap_add
__ZNSt3__2eqB8nn180100IPNS_4pairIPNS_18condition_variableEPNS_5mutexEEEEEbRKNS_11__wrap_iterIT_EESC_
_OidFunctionCall1Coll
__ZNSt3__212basic_stringIcNS_11char_traitsIcEENS_9allocatorIcEEEpLB8nn180100EPKc
_vacuum_delay_point
__ZTSSt12bad_any_cast
__ZTINSt3__27num_putIcNS_19ostreambuf_iteratorIcNS_11char_traitsIcEEEEEE
_iprintf
__ZNSt3__24cerrE
__ZTINSt3__212__do_messageE
_work_mem
_strtod
_LocalBufferBlockPointers
__ZTTNSt3__210istrstreamE
__ZTSNSt3__213basic_ostreamIcNS_11char_traitsIcEEEE
_format_procedure
_datumIsEqual
_make_expanded_record_from_exprecord
__ZTSNSt3__27codecvtIwc11__mbstate_tEE
_tuplestore_putvalues
_get_typsubscript
_list_free
__ZNSt3__29money_putIwNS_19ostreambuf_iteratorIwNS_11char_traitsIwEEEEE2idE
_pow
__ZTINSt3__26locale5__impE
_GenerationContextCreate
_GetAttributeByNum
_MarkBufferDirty
_nan
_abort
_pg_initdb
_strtoul
__ZTVNSt3__23pmr26synchronized_pool_resourceE
_SearchSysCache1
_UnpinPortal
_SPI_prepare
_max_parallel_maintenance_workers
_SPI_processed
__ZNSt3__210unique_ptrIcPFvPvEEaSB8nn180100EOS4_
_symlink
_ExecutorFinish_hook
__ZTCNSt3__29strstreamE0_NS_13basic_istreamIcNS_11char_traitsIcEEEE
_domain_check
__ZNSt3__29money_getIwNS_19istreambuf_iteratorIwNS_11char_traitsIwEEEEE2idE
__ZNSt3__218__FLOAT_POW5_SPLITE
__ZTVNSt3__214basic_ifstreamIcNS_11char_traitsIcEEEE
__ZTVNSt3__210__stdinbufIwEE
_pairingheap_allocate
_ShmemInitStruct
__ZTISt8bad_cast
__ZTSNSt3__28numpunctIcEE
__ZTISt20bad_array_new_length
_find_rendezvous_variable
_SplitIdentifierString
_mbsrtowcs
__ZNSt3__24__fs10filesystem4pathdVB8nn180100IA3_cEENS_9enable_ifIXsr13__is_pathableIT_EE5valueERS2_E4typeERKS6_
_ferror
_lseek
_strncat
__ZTINSt3__220__time_get_c_storageIwEE
_tuplesort_initialize_shared
__ZTSNSt3__215time_get_bynameIcNS_19istreambuf_iteratorIcNS_11char_traitsIcEEEEEE
__ZTVNSt3__215messages_bynameIcEE
__ZTINSt3__217bad_function_callE
__ZTINSt3__29__num_putIcEE
__ZTTNSt3__29strstreamE
_RelnameGetRelid
__ZTTNSt3__213basic_istreamIwNS_11char_traitsIwEEEE
_fmax
__ZTSNSt3__211__money_getIcEE
__ZTVN10__cxxabiv117__class_type_infoE
__ZTVNSt3__27codecvtIDsDu11__mbstate_tEE
__ZNSt3__211__wrap_iterIPKcEpLB8nn180100El
_WinGetPartitionRowCount
__ZTVNSt3__215time_put_bynameIwNS_19ostreambuf_iteratorIwNS_11char_traitsIwEEEEEE
_convert_tuples_by_position
_newlocale
__ZTISt12bad_any_cast
_EncodeSpecialTimestamp
__ZTSNSt3__215messages_bynameIcEE
__ZTVNSt3__27codecvtIDsc11__mbstate_tEE
__ZTINSt3__23pmr28unsynchronized_pool_resourceE
_TransferExpandedObject
_memcmp
__ZNSt3__225_General_precision_tablesIfE16_Special_X_tableE
__ZZNSt3__210__to_charsB8nn180100EPcS0_NS_21__floating_decimal_64ENS_12chars_formatEdE21_Max_shifted_mantissa
__ZTINSt3__215__time_get_tempIcEE
_asin
_tuplestore_puttuple
_ExitParallelMode
__ZNSt3__27codecvtIDsc11__mbstate_tE2idE
_get_func_namespace
_DeleteExpandedObject
__ZTINSt3__214collate_bynameIcEE
_DestroyParallelContext
__ZNSt3__213__POW10_SPLITE
__ZTCNSt3__214basic_iostreamIcNS_11char_traitsIcEEEE8_NS_13basic_ostreamIcS2_EE
_j2date
___threwValue
_RelationGetIndexScan
_nextafterf
__ZTVNSt3__215__time_get_tempIwEE
_setenv
_SPI_cursor_open_with_paramlist
_btowc
_float_overflow_error
_MyProc
__ZTINSt3__23pmr25monotonic_buffer_resourceE
_link
__ZTSNSt3__214__codecvt_utf8IDiEE
_logb
_fread
_appendStringInfoSpaces
__ZTISt12length_error
__ZNSt3__211__wrap_iterIPcEpLB8nn180100El
__ZNSt3__25ctypeIcE2idE
__ZTTNSt3__213basic_ostreamIcNS_11char_traitsIcEEEE
_access
_pg_snprintf
__ZTVNSt3__211__stdoutbufIwEE
_getcwd
_SPI_exec
_post_parse_analyze_hook
___divti3
__ZTSNSt3__28messagesIcEE
__ZTINSt3__223__system_error_categoryE
__ZTINSt3__29__num_getIcEE
__ZTSNSt3__27num_getIwNS_19istreambuf_iteratorIwNS_11char_traitsIwEEEEEE
__ZTINSt3__28messagesIcEE
__ZTVNSt3__212strstreambufE
_EncodeDateTime
_wcstof
_FreeExprContext
_textout
__ZTINSt3__212codecvt_baseE
__ZTSNSt3__25ctypeIcEE
_utimensat
__ZNSt3__24wcinE
_makeTypeNameFromNameList
__ZTISt19bad_optional_access
__ZTINSt12experimental15fundamentals_v112bad_any_castE
__Z22__throw_bad_alloc_shimv
__ZTSNSt3__214error_categoryE
_genericcostestimate
__ZNSt3__26locale5__imp19classic_locale_imp_E
_pg_vsnprintf
__ZTSNSt3__214__shared_countE
_BlessTupleDesc
__ZTINSt3__24__fs10filesystem16filesystem_errorE
__ZTSNSt3__210money_baseE
_CurrentMemoryContext
__ZTINSt3__214codecvt_bynameIDsDu11__mbstate_tEE
_AllocSetContextCreateInternal
___divtf3
_GenericXLogFinish
_fseeko
_stdout
__ZTINSt3__214collate_bynameIwEE
_cbrt
_CreateDestReceiver
_getwc
__ZTINSt3__223__future_error_categoryE
__ZNSt3__25ctypeIwE2idE
__ZTINSt3__213basic_ostreamIwNS_11char_traitsIwEEEE
_sinh
_core_yylex
_ungetwc
_EncodeDateOnly
__ZTVNSt3__215messages_bynameIwEE
__ZTINSt3__215__codecvt_utf16IDiLb0EEE
__ZTINSt3__29money_getIcNS_19istreambuf_iteratorIcNS_11char_traitsIcEEEEEE
__ZTINSt3__214basic_iostreamIcNS_11char_traitsIcEEEE
_SPI_commit_and_chain
_pthread_mutex_init
_make_expanded_record_from_typeid
__ZTINSt3__216__narrow_to_utf8ILm16EEE
_SPI_getvalue
_enlargeStringInfo
__ZTINSt3__210__time_putE
_fiprintf
_interactive_one
__ZTINSt3__214__codecvt_utf8IDiEE
_cstring_to_text
__ZTVNSt3__219__iostream_categoryE
_execute_attr_map_tuple
_function_parse_error_transpose
_fwrite
_MemoryContextStrdup
_getc
_vsnprintf
__ZTVNSt3__29basic_iosIwNS_11char_traitsIwEEEE
__ZNSt3__2eqB8nn180100INS_4__fs10filesystem12__dir_streamES3_EEbRKNS_10shared_ptrIT_EERKNS4_IT0_EE
__ZTVNSt3__29money_putIcNS_19ostreambuf_iteratorIcNS_11char_traitsIcEEEEEE
__ZTVNSt3__27num_putIwNS_19ostreambuf_iteratorIwNS_11char_traitsIwEEEEEE
__ZNSt3__212basic_stringIcNS_11char_traitsIcEENS_9allocatorIcEEEaSERKS5_
__ZTSNSt3__211__stdoutbufIwEE
_find_option
_internalerrposition
_GetAccessStrategy
__ZNSt3__2eqB8nn180100IcNS_11char_traitsIcEEEEbNS_17basic_string_viewIT_T0_EENS_13type_identityIS6_E4typeE
_PG_exception_stack
_CacheMemoryContext
_lappend
_ftruncate
_LWLockNewTrancheId
__ZNSt3__28messagesIwE2idE
_GenericXLogRegisterBuffer
_CommandCounterIncrement
__ZTSNSt3__210moneypunctIwLb0EEE
__ZTVNSt3__215__time_get_tempIcEE
_errmsg_internal
_SPI_connect_ext
_TupleDescGetAttInMetadata
__ZTSNSt3__217__widen_from_utf8ILm16EEE
_add_int_reloption
__ZTSNSt3__219__iostream_categoryE
__ZTVNSt3__223__system_error_categoryE
__ZNSt3__219__start_std_streamsE
_dup
_strtoull
__ZTVNSt3__25ctypeIcEE
__ZNSt3__2eqB8nn180100IPwEEbRKNS_11__wrap_iterIT_EES6_
__ZTINSt3__27num_getIcNS_19istreambuf_iteratorIcNS_11char_traitsIcEEEEEE
__ZNSt3__28messagesIcE2idE
__ZTINSt3__217moneypunct_bynameIwLb0EEE
_towlower_l
_get_fn_expr_rettype
__ZTSNSt3__27num_getIcNS_19istreambuf_iteratorIcNS_11char_traitsIcEEEEEE
___dynamic_cast
_pgstat_report_activity
_pthread_cond_destroy
__ZNSt3__2eqB8nn180100IcPFvPvEEEbRKNS_10unique_ptrIT_T0_EEDn
__ZTSNSt3__210__time_getE
_get_extension_oid
__ZNSt3__24clogE
_planner_hook
_RegisterXactCallback
_dlclose
__ZTINSt3__214__shared_countE
__ZTSNSt3__213basic_ostreamIwNS_11char_traitsIwEEEE
__ZTSNSt3__224__generic_error_categoryE
_pgstat_progress_update_param
__ZTCNSt3__210istrstreamE0_NS_13basic_istreamIcNS_11char_traitsIcEEEE
__ZTIPKc
_readdir
_GetDatabaseEncoding
__ZTINSt3__210money_baseE
__ZTVNSt3__29basic_iosIcNS_11char_traitsIcEEEE
_SPI_plan_get_plan_sources
_shm_toc_insert
_array_free_iterator
__ZTSNSt3__219basic_ostringstreamIcNS_11char_traitsIcEENS_9allocatorIcEEEE
_pstrdup
_ExecutorEnd_hook
_PageAddItemExtended
_CreateExprContext
__ZTINSt3__28time_putIwNS_19ostreambuf_iteratorIwNS_11char_traitsIwEEEEEE
__ZTSNSt12experimental15fundamentals_v112bad_any_castE
_GetTransactionSnapshot
__ZTINSt3__215__time_get_tempIwEE
_hash_get_num_entries
___ctype_toupper_loc
_RequestAddinShmemSpace
__ZTVNSt3__215numpunct_bynameIwEE
_wcsnrtombs
__ZTCNSt3__218basic_stringstreamIcNS_11char_traitsIcEENS_9allocatorIcEEEE0_NS_14basic_iostreamIcS2_EE
__ZTTNSt3__219basic_ostringstreamIcNS_11char_traitsIcEENS_9allocatorIcEEEE
__ZTSNSt3__217__assoc_sub_stateE
_strcoll_l
_MemoryContextAlloc
__ZNSt3__29money_putIcNS_19ostreambuf_iteratorIcNS_11char_traitsIcEEEEE2idE
__ZTINSt3__29money_putIwNS_19ostreambuf_iteratorIwNS_11char_traitsIwEEEEEE
__ZNSt3__24__fs10filesystemneB8nn180100ERKNS1_18directory_iteratorES4_
_construct_array
_SPI_execute_plan_with_paramlist
__ZTVNSt3__214codecvt_bynameIcc11__mbstate_tEE
__ZTSNSt3__214basic_ofstreamIcNS_11char_traitsIcEEEE
_atanh
_fileno
__ZTVNSt3__217bad_function_callE
__ZTSNSt3__29money_putIwNS_19ostreambuf_iteratorIwNS_11char_traitsIwEEEEEE
__ZTVNSt3__219basic_ostringstreamIcNS_11char_traitsIcEENS_9allocatorIcEEEE
_pairingheap_remove_first
__ZNSt3__2eqB8nn180100ENS_11__thread_idES0_
__ZNSt3__27collateIwE2idE
_lookup_rowtype_tupdesc
_strcasecmp
__ZNSt3__2eqB8nn180100INS_9allocatorIcEEEEbRKNS_12basic_stringIcNS_11char_traitsIcEET_EES9_
__ZNSt3__2eqB8nn180100IPPNS_17__assoc_sub_stateEEEbRKNS_11__wrap_iterIT_EES8_
_makeParamList
_slot_getsomeattrs_int
__ZTCNSt3__218basic_stringstreamIcNS_11char_traitsIcEENS_9allocatorIcEEEE0_NS_13basic_istreamIcS2_EE
__ZTVNSt3__27num_getIwNS_19istreambuf_iteratorIwNS_11char_traitsIwEEEEEE
_initStringInfo
_set_errcontext_domain
__ZTSNSt3__23pmr26__null_memory_resource_impE
_ReadBuffer
__ZTSNSt3__29__num_getIwEE
__ZTSNSt3__210moneypunctIcLb1EEE
_float_underflow_error
_UnlockRelationForExtension
__ZTSNSt3__212__do_messageE
__ZNSt3__2eqB8nn180100ERKNS_16__deque_iteratorINS_4__fs10filesystem12__dir_streamEPS3_RS3_PS4_lLl0EEES9_
__ZTINSt3__214codecvt_bynameIDiDu11__mbstate_tEE
_fdopendir
_free
_errposition
_DefineCustomStringVariable
_wcstod
__ZNSt3__2neB8nn180100ERKNS_16__deque_iteratorINS_4__fs10filesystem12__dir_streamEPS3_RS3_PS4_lLl0EEES9_
__ZTSNSt3__220__shared_ptr_emplaceINS_4__fs10filesystem28recursive_directory_iterator12__shared_impENS_9allocatorIS4_EEEE
_round
_memchr
__ZNSt3__26chronoeqB8nn180100IxNS_5ratioILx1ELx1000000000EEExS3_EEbRKNS0_8durationIT_T0_EERKNS4_IT1_T2_EE
_iswprint_l
__ZStneB8nn180100RKSt13exception_ptrS1_
__ZTSNSt3__23pmr28unsynchronized_pool_resourceE
_OpenTransientFile
__ZTINSt3__212strstreambufE
__ZTINSt3__211__stdoutbufIcEE
__ZTINSt3__215__codecvt_utf16IwLb0EEE
_err_generic_string
_pg_re_throw
__ZTSNSt3__29basic_iosIwNS_11char_traitsIwEEEE
_opendir
_MemoryContextDeleteChildren
_format_elog_string
__ZTSNSt3__215__codecvt_utf16IDsLb0EEE
_SPI_datumTransfer
__ZTSNSt3__214codecvt_bynameIDiDu11__mbstate_tEE
__ZTINSt3__23pmr32__new_delete_memory_resource_impE
_pg_ltoa
__ZTINSt3__29basic_iosIcNS_11char_traitsIcEEEE
_sampler_random_fract
_vsscanf
_SPI_cursor_find
___lshrti3
__ZTVNSt3__213basic_istreamIcNS_11char_traitsIcEEEE
__ZTINSt3__210moneypunctIwLb0EEE
__ZTVNSt3__210moneypunctIcLb0EEE
__ZNSt3__24__fs10filesystem4pathaSB8nn180100EOS2_
_lookup_type_cache
__ZTINSt3__28numpunctIwEE
_SPI_finish
__ZTTNSt3__214basic_ofstreamIcNS_11char_traitsIcEEEE
__ZNSt3__2neB8nn180100IPcEEbRKNS_11__wrap_iterIT_EES6_
_on_shmem_exit
__ZTINSt3__214__codecvt_utf8IwEE
_table_open
__ZTINSt3__211__money_putIwEE
__ZTSNSt3__220__shared_ptr_emplaceINS_4__fs10filesystem12__dir_streamENS_9allocatorIS3_EEEE
__ZTINSt3__27collateIwEE
_has_privs_of_role
__ZNSt3__23cinE
__ZTVNSt3__224__generic_error_categoryE
_GetUserId
__ZTSNSt3__213basic_istreamIcNS_11char_traitsIcEEEE
__ZNSt3__210unique_ptrIA_NS_24__barrier_algorithm_base9__state_tENS_14default_deleteIS3_EEEaSB8nn180100EOS6_
__ZTVNSt3__28time_getIcNS_19istreambuf_iteratorIcNS_11char_traitsIcEEEEEE
_chdir
_errstart
_makeFuncExpr
__ZTSNSt3__28ios_base7failureE
_PageIndexTupleOverwrite
_CurrentResourceOwner
_ReleaseSysCache
_pthread_cond_timedwait
__ZNSt3__26__itoa10__pow10_64E
__ZTINSt3__23pmr26__null_memory_resource_impE
_expanded_record_fetch_field
__ZTVNSt3__217moneypunct_bynameIcLb0EEE
__ZTVNSt3__223__future_error_categoryE
_appendStringInfoStringQuoted
__ZNSt3__2eqB8nn180100IPKwPwEEbRKNS_11__wrap_iterIT_EERKNS4_IT0_EE
_expanded_record_lookup_field
_quote_identifier
__ZTINSt3__219basic_istringstreamIcNS_11char_traitsIcEENS_9allocatorIcEEEE
__ZTINSt3__213basic_ostreamIcNS_11char_traitsIcEEEE
_ExecStoreVirtualTuple
__ZTINSt3__214basic_ofstreamIcNS_11char_traitsIcEEEE
_mkdir
_float_to_shortest_decimal_bufn
_bms_next_member
__ZTINSt3__215messages_bynameIcEE
_fchmodat
__ZNSt3__2neB8nn180100IPNS_4pairIPNS_18condition_variableEPNS_5mutexEEEEEbRKNS_11__wrap_iterIT_EESC_
_nanosleep
_sqrtl
_write
_CloseTransientFile
__ZTINSt3__214codecvt_bynameIDsc11__mbstate_tEE
__ZTSNSt3__27num_putIcNS_19ostreambuf_iteratorIcNS_11char_traitsIcEEEEEE
__ZNSt3__219__DOUBLE_POW5_SPLITE
_lowerstr
_ReleaseCurrentSubTransaction
_AllocateFile
__ZTCNSt3__214basic_ifstreamIcNS_11char_traitsIcEEEE0_NS_13basic_istreamIcS2_EE
_GenericXLogAbort
_SPI_getbinval
_pwrite
_ScanKeywordLookup
_pg_mbstrlen_with_len
__ZNSt3__27codecvtIwc11__mbstate_tE2idE
_cos
_palloc_extended
_standard_ProcessUtility
_WalUsageAccumDiff
_ConditionVariableSignal
__ZTVNSt3__210moneypunctIwLb1EEE
_ResourceOwnerReleaseAllPlanCacheRefs
_BufferBlocks
__ZNSt3__26chronossB8nn180100IxNS_5ratioILx1ELx1000000000EEExNS2_ILx1ELx1000EEEQ20three_way_comparableINS_11common_typeIJT_T1_EE4typeEEEEDaRKNS0_8durationIS6_T0_EERKNSA_IS7_T2_EE
_makeTypeName
_dlopen
_remquo
__ZTSNSt3__212codecvt_baseE
_clock_gettime
_MyDatabaseId
_exprTypmod
_ExecutorStart_hook
__ZTVNSt3__213basic_ostreamIwNS_11char_traitsIwEEEE
__ZNSt3__210moneypunctIwLb0EE2idE
__ZTINSt3__215basic_streambufIcNS_11char_traitsIcEEEE
__ZTSNSt3__215__codecvt_utf16IDsLb1EEE
_GetCachedExpression
__ZTSNSt3__26locale5__impE
__ZTSNSt3__28numpunctIwEE
__ZTINSt3__215time_put_bynameIcNS_19ostreambuf_iteratorIcNS_11char_traitsIcEEEEEE
__ZTVNSt3__23pmr32__new_delete_memory_resource_impE
__ZTVNSt3__213basic_istreamIwNS_11char_traitsIwEEEE
_ResourceOwnerCreate
_EOH_get_flat_size
_dlerror
_strcat
_aligned_alloc
_strerror_r
__ZNSt3__2neB8nn180100IPKwPwEEbRKNS_11__wrap_iterIT_EERKNS4_IT0_EE
_errcode_for_file_access
__ZTSNSt3__219basic_istringstreamIcNS_11char_traitsIcEENS_9allocatorIcEEEE
_EncodeSpecialDate
__ZTVNSt3__28numpunctIwEE
_LockBufferForCleanup
_get_typlenbyval
__ZNSt3__24__fs10filesystem4pathdVB8nn180100ERKS2_
_strtol
_shm_toc_lookup
_GetCurrentTimestamp
_standard_ExecutorRun
__ZNSt3__2eqB8nn180100IcNS_11char_traitsIcEENS_9allocatorIcEEEEbRKNS_12basic_stringIT_T0_T1_EEPKS6_
__ZTVSt16invalid_argument
__ZTVNSt3__28ios_base7failureE
__ZTSNSt3__214collate_bynameIwEE
__ZNSt3__212basic_stringIcNS_11char_traitsIcEENS_9allocatorIcEEEaSB8nn180100EPKc
__ZTINSt3__27collateIcEE
_strncasecmp
__ZTVSt11logic_error
_quote_qualified_identifier
__ZNSt3__27num_putIwNS_19ostreambuf_iteratorIwNS_11char_traitsIwEEEEE2idE
__ZNSt3__210shared_ptrINS_4__fs10filesystem28recursive_directory_iterator12__shared_impEEaSB8nn180100EOS5_
__ZTINSt3__211__money_getIcEE
___lttf2
___cxa_increment_exception_refcount
__ZNSt3__25wcoutE
__ZTINSt3__213basic_istreamIcNS_11char_traitsIcEEEE
_SPI_tuptable
__ZTVNSt3__215basic_stringbufIcNS_11char_traitsIcEENS_9allocatorIcEEEE
__ZTSNSt3__215basic_stringbufIcNS_11char_traitsIcEENS_9allocatorIcEEEE
__ZTSSt19bad_optional_access
_usleep
__ZNSt3__27num_getIwNS_19istreambuf_iteratorIwNS_11char_traitsIwEEEEE2idE
_debug_query_string
__ZTINSt3__217moneypunct_bynameIwLb1EEE
__ZNSt3__28time_putIcNS_19ostreambuf_iteratorIcNS_11char_traitsIcEEEEE2idE
__ZTINSt3__213basic_filebufIcNS_11char_traitsIcEEEE
___addtf3
_readlink
__ZTINSt3__29__num_putIwEE
_pthread_setspecific
__ZNSt3__24__fs10filesystemoRB8nn180100ERNS1_5permsES2_
_Int64GetDatum
_LWLockAcquire
_DefineCustomEnumVariable
_TopTransactionResourceOwner
__ZTINSt3__29basic_iosIwNS_11char_traitsIwEEEE
__ZTSNSt3__210ostrstreamE
_list_make2_impl
__ZTINSt3__224__generic_error_categoryE
_contain_mutable_functions
__ZNSt3__225_General_precision_tablesIfE17_Ordinary_X_tableE
__ZTSNSt3__214__codecvt_utf8IwEE
_format_type_be
__ZTINSt3__212ctype_bynameIcEE
__ZTVNSt3__214__shared_countE
_statvfs
__ZTVNSt3__219basic_istringstreamIcNS_11char_traitsIcEENS_9allocatorIcEEEE
_tan
_MainLWLockArray
__ZTINSt3__28time_getIwNS_19istreambuf_iteratorIwNS_11char_traitsIwEEEEEE
__ZTISt12out_of_range
__ZNSt3__219ostreambuf_iteratorIwNS_11char_traitsIwEEEaSB8nn180100Ew
_heap_freetuple
_DatumGetEOHP
_isalpha
_pg_printf
_interactive_read
_DecodeDateTime
_reservoir_get_next_S
_pg_detoast_datum
_hash_seq_search
__ZTINSt3__212system_errorE
__ZTSNSt3__211__money_getIwEE
__ZTINSt3__214codecvt_bynameIwc11__mbstate_tEE
_ExecutorRun_hook
_reservoir_init_selection_state
__ZTSNSt3__216__narrow_to_utf8ILm32EEE
__ZNSt3__214__num_get_base5__srcE
__ZTVNSt3__219__shared_weak_countE
__ZNSt3__27codecvtIDiDu11__mbstate_tE2idE
_hash_bytes
